Certificate:
    Data:
        Version: 1 (0x0)
        Serial Number: 2 (0x2)
    Signature Algorithm: md5WithRSAEncryption
        Issuer: C=US, CN=trailers.apple.com
        Validity
            Not Before: Jul 12 21:00:44 2014 GMT
            Not After : Jul  9 21:00:44 2024 GMT
        Subject: C=US, CN=trailers.apple.com
        Subject Public Key Info:
            Public Key Algorithm: rsaEncryption
                Public-Key: (1024 bit)
                Modulus:
                    00:d9:7c:83:07:34:7d:c7:50:6c:87:96:79:d7:57:
                    87:32:03:c1:c3:fc:75:3c:6e:fb:75:98:d7:9a:c7:
                    e3:0a:1e:22:d2:81:44:ec:8d:7c:d1:14:5a:47:e0:
                    e1:76:0f:76:c4:c8:d1:ed:91:02:37:d2:1e:96:d3:
                    2a:fb:37:f5:03:cc:ec:47:94:af:4b:34:21:a5:47:
                    b3:4c:7f:7c:77:2c:86:6d:bd:28:ca:5a:7b:b4:d3:
                    07:e5:22:5c:1d:0f:61:12:e8:20:fd:51:eb:7a:b2:
                    e0:93:fd:b1:fd:7f:af:52:70:d6:00:cf:49:e9:41:
                    fc:5f:5a:8c:dc:98:42:63:0b
                Exponent: 65537 (0x10001)
    Signature Algorithm: md5WithRSAEncryption
         22:40:6f:07:21:c6:de:f1:25:16:57:31:73:33:cd:7d:cd:9d:
         23:9d:d7:92:c1:d9:81:c3:3f:54:47:4e:ba:8a:3f:ca:31:89:
         d2:28:81:8b:3e:98:70:0a:d6:7a:a8:68:39:1f:2f:29:62:98:
         92:bb:93:cd:11:c1:7c:d6:36:34:3f:62:3d:3d:55:4e:23:be:
         f0:13:74:73:0e:07:1f:07:32:98:9d:06:09:d1:e7:26:6a:3a:
         38:78:53:6d:e9:75:20:f7:30:1f:3e:80:fe:52:07:5e:aa:f3:
         4b:95:f3:55:8b:79:d6:46:2e:61:32:ee:15:e0:0f:3f:c1:ce:
         d8:d2:c9:82:8b:62:a5:7a:48:3e:0c:65:75:37:11:53:4f:d7:
         00:de:41:63:b1:4d:58:1f:df:38:12:45:1f:65:6b:81:a6:cd:
         45:a3:66:69:9b:2a:3c:96:f5:83:88:8d:91:d5:c1:96:28:b7:
         3f:e9:d5:83:8e:97:c9:7f:5f:24:26:95:e8:6a:42:13:a0:3a:
         7b:41:38:b2:dd:b0:09:a1:8a:d9:1d:d9:21:b0:06:0f:47:d3:
         61:f9:c3:11:25:39:72:3f:00:60:f7:b8:97:2a:6c:87:65:70:
         42:49:e7:fb:45:68:5f:e4:c2:84:91:a3:a8:1e:af:74:9e:25:
         d5:66:1d:cd
-----BEGIN CERTIFICATE-----
MIICRDCCASwCAQIwDQYJKoZIhvcNAQEEBQAwKjELMAkGA1UEBhMCVVMxGzAZBgNV
BAMMEnRyYWlsZXJzLmFwcGxlLmNvbTAeFw0xNDA3MTIyMTAwNDRaFw0yNDA3MDky
MTAwNDRaMCoxCzAJBgNVBAYTAlVTMRswGQYDVQQDDBJ0cmFpbGVycy5hcHBsZS5j
b20wgZ8wDQYJKoZIhvcNAQEBBQADgY0AMIGJAoGBANl8gwc0fcdQbIeWeddXhzID
wcP8dTxu+3WY15rH4woeItKBROyNfNEUWkfg4XYPdsTI0e2RAjfSHpbTKvs39QPM
7EeUr0s0IaVHs0x/fHcshm29KMpae7TTB+UiXB0PYRLoIP1R63qy4JP9sf1/r1Jw
1gDPSelB/F9ajNyYQmMLAgMBAAEwDQYJKoZIhvcNAQEEBQADggEBACJAbwchxt7x
JRZXMXMzzX3NnSOd15LB2YHDP1RHTrqKP8oxidIogYs+mHAK1nqoaDkfLylimJK7
k80RwXzWNjQ/Yj09VU4jvvATdHMOBx8HMpidBgnR5yZqOjh4U23pdSD3MB8+gP5S
B16q80uV81WLedZGLmEy7hXgDz/BztjSyYKLYqV6SD4MZXU3EVNP1wDeQWOxTVgf
3zgSRR9la4GmzUWjZmmbKjyW9YOIjZHVwZYotz/p1YOOl8l/XyQmlehqQhOgOntB
OLLdsAmhitkd2SGwBg9H02H5wxElOXI/AGD3uJcqbIdlcEJJ5/tFaF/kwoSRo6ge
r3SeJdVmHc0=
-----END CERTIFICATE-----
